; Function Attrs: mustprogress nounwind uwtable
define void @_ZN6icu_7518TransliteratorSpecD2Ev(ptr noundef nonnull align 8 dereferenceable(280) %this) unnamed_addr #0 align 2 {
entry:
  %res = getelementptr inbounds i8, ptr %this, i64 272
  %0 = load ptr, ptr %res, align 8
  %isnull = icmp eq ptr %0, null
  br i1 %isnull, label %delete.end, label %delete.notnull

delete.notnull:                                   ; preds = %entry
  %vtable = load ptr, ptr %0, align 8
  %vfn = getelementptr inbounds i8, ptr %vtable, i64 8
  %1 = load ptr, ptr %vfn, align 8
  tail call void %1(ptr noundef nonnull align 8 dereferenceable(24) %0) #15
  br label %delete.end

delete.end:                                       ; preds = %delete.notnull, %entry
  %scriptName = getelementptr inbounds i8, ptr %this, i64 200
  tail call void @_ZN6icu_7513UnicodeStringD1Ev(ptr noundef nonnull align 8 dereferenceable(64) %scriptName) #15
  %nextSpec = getelementptr inbounds i8, ptr %this, i64 136
  tail call void @_ZN6icu_7513UnicodeStringD1Ev(ptr noundef nonnull align 8 dereferenceable(64) %nextSpec) #15
  %spec = getelementptr inbounds i8, ptr %this, i64 72
  tail call void @_ZN6icu_7513UnicodeStringD1Ev(ptr noundef nonnull align 8 dereferenceable(64) %spec) #15
  %top = getelementptr inbounds i8, ptr %this, i64 8
  tail call void @_ZN6icu_7513UnicodeStringD1Ev(ptr noundef nonnull align 8 dereferenceable(64) %top) #15
  ret void
}